target datalayout = "e-m:e-p270:32:32-p271:32:32-p272:64:64-i64:64-i128:128-f80:128-n8:16:32:64-S128"
target triple = "x86_64-pc-linux-gnu"

%struct.PROV_ECDSA_CTX = type { ptr, ptr, ptr, i32, i8, [256 x i8], i64, [50 x i8], ptr, ptr, i64, ptr, i64, ptr, ptr, i32 }
%struct.ossl_param_st = type { ptr, i32, ptr, i64, i64 }

@.str = private unnamed_addr constant [59 x i8] c"../openssl/providers/implementations/signature/ecdsa_sig.c\00", align 1
@.str.3 = private unnamed_addr constant [10 x i8] c"signature\00", align 1
@.str.14 = private unnamed_addr constant [11 x i8] c"nonce-type\00", align 1

; Function Attrs: nounwind uwtable
define internal i32 @ecdsa_common_set_ctx_params(ptr noundef %0, ptr noundef %1) #0 {
  %3 = alloca i32, align 4
  %4 = alloca ptr, align 8
  %5 = alloca ptr, align 8
  %6 = alloca ptr, align 8
  %7 = alloca ptr, align 8
  %8 = alloca i32, align 4
  store ptr %0, ptr %4, align 8, !tbaa !3
  store ptr %1, ptr %5, align 8, !tbaa !19
  call void @llvm.lifetime.start.p0(i64 8, ptr %6) #7
  %9 = load ptr, ptr %4, align 8, !tbaa !3
  store ptr %9, ptr %6, align 8, !tbaa !3
  call void @llvm.lifetime.start.p0(i64 8, ptr %7) #7
  %10 = load ptr, ptr %5, align 8, !tbaa !19
  %11 = call ptr @OSSL_PARAM_locate_const(ptr noundef %10, ptr noundef @.str.14)
  store ptr %11, ptr %7, align 8, !tbaa !19
  %12 = load ptr, ptr %7, align 8, !tbaa !19
  %13 = icmp ne ptr %12, null
  br i1 %13, label %14, label %21

14:                                               ; preds = %2
  %15 = load ptr, ptr %7, align 8, !tbaa !19
  %16 = load ptr, ptr %6, align 8, !tbaa !3
  %17 = getelementptr inbounds nuw %struct.PROV_ECDSA_CTX, ptr %16, i32 0, i32 15
  %18 = call i32 @OSSL_PARAM_get_uint(ptr noundef %15, ptr noundef %17)
  %19 = icmp ne i32 %18, 0
  br i1 %19, label %21, label %20

20:                                               ; preds = %14
  store i32 0, ptr %3, align 4
  store i32 1, ptr %8, align 4
  br label %22

21:                                               ; preds = %14, %2
  store i32 1, ptr %3, align 4
  store i32 1, ptr %8, align 4
  br label %22

22:                                               ; preds = %21, %20
  call void @llvm.lifetime.end.p0(i64 8, ptr %7) #7
  call void @llvm.lifetime.end.p0(i64 8, ptr %6) #7
  %23 = load i32, ptr %3, align 4
  ret i32 %23
}

; Function Attrs: inlinehint nounwind uwtable
define internal i32 @ossl_param_is_empty(ptr noundef %0) #5 {
  %2 = alloca ptr, align 8
  store ptr %0, ptr %2, align 8, !tbaa !19
  %3 = load ptr, ptr %2, align 8, !tbaa !19
  %4 = icmp eq ptr %3, null
  br i1 %4, label %10, label %5

5:                                                ; preds = %1
  %6 = load ptr, ptr %2, align 8, !tbaa !19
  %7 = getelementptr inbounds nuw %struct.ossl_param_st, ptr %6, i32 0, i32 0
  %8 = load ptr, ptr %7, align 8, !tbaa !44
  %9 = icmp eq ptr %8, null
  br label %10

10:                                               ; preds = %5, %1
  %11 = phi i1 [ true, %1 ], [ %9, %5 ]
  %12 = zext i1 %11 to i32
  ret i32 %12
}

; Function Attrs: nounwind uwtable
define internal i32 @ecdsa_sigalg_set_ctx_params(ptr noundef %0, ptr noundef %1) #0 {
  %3 = alloca i32, align 4
  %4 = alloca ptr, align 8
  %5 = alloca ptr, align 8
  %6 = alloca ptr, align 8
  %7 = alloca ptr, align 8
  %8 = alloca i32, align 4
  %9 = alloca i32, align 4
  store ptr %0, ptr %4, align 8, !tbaa !3
  store ptr %1, ptr %5, align 8, !tbaa !19
  call void @llvm.lifetime.start.p0(i64 8, ptr %6) #7
  %10 = load ptr, ptr %4, align 8, !tbaa !3
  store ptr %10, ptr %6, align 8, !tbaa !3
  call void @llvm.lifetime.start.p0(i64 8, ptr %7) #7
  call void @llvm.lifetime.start.p0(i64 4, ptr %8) #7
  %11 = load ptr, ptr %6, align 8, !tbaa !3
  %12 = icmp eq ptr %11, null
  br i1 %12, label %13, label %14

13:                                               ; preds = %2
  store i32 0, ptr %3, align 4
  store i32 1, ptr %9, align 4
  br label %55

14:                                               ; preds = %2
  %15 = load ptr, ptr %5, align 8, !tbaa !19
  %16 = call i32 @ossl_param_is_empty(ptr noundef %15)
  %17 = icmp ne i32 %16, 0
  br i1 %17, label %18, label %19

18:                                               ; preds = %14
  store i32 1, ptr %3, align 4
  store i32 1, ptr %9, align 4
  br label %55

19:                                               ; preds = %14
  %20 = load ptr, ptr %6, align 8, !tbaa !3
  %21 = load ptr, ptr %5, align 8, !tbaa !19
  %22 = call i32 @ecdsa_common_set_ctx_params(ptr noundef %20, ptr noundef %21)
  store i32 %22, ptr %8, align 4, !tbaa !26
  %23 = icmp sle i32 %22, 0
  br i1 %23, label %24, label %26

24:                                               ; preds = %19
  %25 = load i32, ptr %8, align 4, !tbaa !26
  store i32 %25, ptr %3, align 4
  store i32 1, ptr %9, align 4
  br label %55

26:                                               ; preds = %19
  %27 = load ptr, ptr %6, align 8, !tbaa !3
  %28 = getelementptr inbounds nuw %struct.PROV_ECDSA_CTX, ptr %27, i32 0, i32 3
  %29 = load i32, ptr %28, align 8, !tbaa !24
  %30 = icmp eq i32 %29, 32768
  br i1 %30, label %31, label %54

31:                                               ; preds = %26
  %32 = load ptr, ptr %5, align 8, !tbaa !19
  %33 = call ptr @OSSL_PARAM_locate_const(ptr noundef %32, ptr noundef @.str.3)
  store ptr %33, ptr %7, align 8, !tbaa !19
  %34 = load ptr, ptr %7, align 8, !tbaa !19
  %35 = icmp ne ptr %34, null
  br i1 %35, label %36, label %53

36:                                               ; preds = %31
  %37 = load ptr, ptr %6, align 8, !tbaa !3
  %38 = getelementptr inbounds nuw %struct.PROV_ECDSA_CTX, ptr %37, i32 0, i32 11
  %39 = load ptr, ptr %38, align 8, !tbaa !28
  call void @CRYPTO_free(ptr noundef %39, ptr noundef @.str, i32 noundef 985)
  %40 = load ptr, ptr %6, align 8, !tbaa !3
  %41 = getelementptr inbounds nuw %struct.PROV_ECDSA_CTX, ptr %40, i32 0, i32 11
  store ptr null, ptr %41, align 8, !tbaa !28
  %42 = load ptr, ptr %6, align 8, !tbaa !3
  %43 = getelementptr inbounds nuw %struct.PROV_ECDSA_CTX, ptr %42, i32 0, i32 12
  store i64 0, ptr %43, align 8, !tbaa !42
  %44 = load ptr, ptr %7, align 8, !tbaa !19
  %45 = load ptr, ptr %6, align 8, !tbaa !3
  %46 = getelementptr inbounds nuw %struct.PROV_ECDSA_CTX, ptr %45, i32 0, i32 11
  %47 = load ptr, ptr %6, align 8, !tbaa !3
  %48 = getelementptr inbounds nuw %struct.PROV_ECDSA_CTX, ptr %47, i32 0, i32 12
  %49 = call i32 @OSSL_PARAM_get_octet_string(ptr noundef %44, ptr noundef %46, i64 noundef 0, ptr noundef %48)
  %50 = icmp ne i32 %49, 0
  br i1 %50, label %52, label %51

51:                                               ; preds = %36
  store i32 0, ptr %3, align 4
  store i32 1, ptr %9, align 4
  br label %55

52:                                               ; preds = %36
  br label %53

53:                                               ; preds = %52, %31
  br label %54

54:                                               ; preds = %53, %26
  store i32 1, ptr %3, align 4
  store i32 1, ptr %9, align 4
  br label %55

55:                                               ; preds = %54, %51, %24, %18, %13
  call void @llvm.lifetime.end.p0(i64 4, ptr %8) #7
  call void @llvm.lifetime.end.p0(i64 8, ptr %7) #7
  call void @llvm.lifetime.end.p0(i64 8, ptr %6) #7
  %56 = load i32, ptr %3, align 4
  ret i32 %56
}