; Function Attrs: nounwind uwtable
define internal range(i32 0, 2) i32 @ecdsa_sigalg_set_ctx_params(ptr noundef %0, ptr noundef %1) #0 {
  %3 = icmp eq ptr %0, null
  br i1 %3, label %ossl_param_is_empty.exit.thread, label %4

4:                                                ; preds = %2
  %5 = icmp eq ptr %1, null
  br i1 %5, label %ossl_param_is_empty.exit.thread, label %ossl_param_is_empty.exit

ossl_param_is_empty.exit:                         ; preds = %4
  %6 = load ptr, ptr %1, align 8, !tbaa !40
  %.not = icmp eq ptr %6, null
  br i1 %.not, label %ossl_param_is_empty.exit.thread, label %7

7:                                                ; preds = %ossl_param_is_empty.exit
  %8 = tail call ptr @OSSL_PARAM_locate_const(ptr noundef nonnull %1, ptr noundef nonnull @.str.14) #8
  %.not.i = icmp eq ptr %8, null
  br i1 %.not.i, label %ecdsa_common_set_ctx_params.exit, label %9

9:                                                ; preds = %7
  %10 = getelementptr inbounds nuw i8, ptr %0, i64 408
  %11 = tail call i32 @OSSL_PARAM_get_uint(ptr noundef nonnull %8, ptr noundef nonnull %10) #8
  %.not6.i = icmp eq i32 %11, 0
  br i1 %.not6.i, label %ossl_param_is_empty.exit.thread, label %ecdsa_common_set_ctx_params.exit

ecdsa_common_set_ctx_params.exit:                 ; preds = %9, %7
  %12 = getelementptr inbounds nuw i8, ptr %0, i64 24
  %13 = load i32, ptr %12, align 8, !tbaa !17
  %14 = icmp eq i32 %13, 32768
  br i1 %14, label %15, label %22

15:                                               ; preds = %ecdsa_common_set_ctx_params.exit
  %16 = tail call ptr @OSSL_PARAM_locate_const(ptr noundef nonnull %1, ptr noundef nonnull @.str.3) #8
  %.not19 = icmp eq ptr %16, null
  br i1 %.not19, label %22, label %17

17:                                               ; preds = %15
  %18 = getelementptr inbounds nuw i8, ptr %0, i64 376
  %19 = load ptr, ptr %18, align 8, !tbaa !25
  tail call void @CRYPTO_free(ptr noundef %19, ptr noundef nonnull @.str, i32 noundef 985) #8
  %20 = getelementptr inbounds nuw i8, ptr %0, i64 384
  tail call void @llvm.memset.p0.i64(ptr noundef nonnull align 8 dereferenceable(16) %18, i8 0, i64 16, i1 false)
  %21 = tail call i32 @OSSL_PARAM_get_octet_string(ptr noundef nonnull %16, ptr noundef nonnull %18, i64 noundef 0, ptr noundef nonnull %20) #8
  %.not20 = icmp eq i32 %21, 0
  br i1 %.not20, label %ossl_param_is_empty.exit.thread, label %22

22:                                               ; preds = %15, %17, %ecdsa_common_set_ctx_params.exit
  br label %ossl_param_is_empty.exit.thread

ossl_param_is_empty.exit.thread:                  ; preds = %9, %4, %17, %ossl_param_is_empty.exit, %2, %22
  %.0 = phi i32 [ 1, %22 ], [ 0, %2 ], [ 1, %ossl_param_is_empty.exit ], [ 0, %17 ], [ 1, %4 ], [ 0, %9 ]
  ret i32 %.0
}